; Function Attrs: nounwind uwtable
define internal ptr @_hashlib_HMAC_digest(ptr noundef %0, ptr readnone captures(none) %1) #0 {
  %3 = alloca [64 x i8], align 16
  call void @llvm.lifetime.start.p0(i64 64, ptr nonnull %3) #9
  %4 = getelementptr i8, ptr %0, i64 16
  %.val.i = load ptr, ptr %4, align 8, !tbaa !3
  %5 = tail call ptr @HMAC_CTX_get_md(ptr noundef %.val.i) #9
  %6 = tail call i32 @EVP_MD_get_size(ptr noundef %5) #9
  %7 = icmp eq i32 %6, 0
  br i1 %7, label %8, label %10

8:                                                ; preds = %2
  %9 = load ptr, ptr @PyExc_ValueError, align 8, !tbaa !23
  tail call void (ptr, ptr, ...) @_setException(ptr noundef %9, ptr noundef null)
  br label %_hashlib_HMAC_digest_impl.exit

10:                                               ; preds = %2
  %11 = call fastcc i32 @_hmac_digest(ptr noundef nonnull %0, ptr noundef %3, i32 noundef %6)
  %12 = icmp eq i32 %11, 0
  br i1 %12, label %_hashlib_HMAC_digest_impl.exit, label %13

13:                                               ; preds = %10
  %14 = zext i32 %6 to i64
  %15 = call ptr @PyBytes_FromStringAndSize(ptr noundef nonnull %3, i64 noundef %14) #9
  br label %_hashlib_HMAC_digest_impl.exit

_hashlib_HMAC_digest_impl.exit:                   ; preds = %8, %10, %13
  %.0.i = phi ptr [ null, %8 ], [ %15, %13 ], [ null, %10 ]
  call void @llvm.lifetime.end.p0(i64 64, ptr nonnull %3) #9
  ret ptr %.0.i
}